target datalayout = "e-m:e-p270:32:32-p271:32:32-p272:64:64-i64:64-i128:128-f80:128-n8:16:32:64-S128"
target triple = "x86_64-pc-linux-gnu"

%class.State = type { [315 x i32], [315 x i16], i32, ptr, [2 x ptr] }

; Function Attrs: mustprogress nounwind uwtable
define hidden void @_ZN5State33_sub_Op_ShenandoahCompareAndSwapPEPK4Node(ptr noundef nonnull align 8 dereferenceable(1920) %0, ptr noundef %1) #1 align 2 {
  %3 = alloca ptr, align 8
  %4 = alloca ptr, align 8
  %5 = alloca i32, align 4
  store ptr %0, ptr %3, align 8
  store ptr %1, ptr %4, align 8
  %6 = load ptr, ptr %3, align 8
  %7 = getelementptr inbounds %class.State, ptr %6, i32 0, i32 4
  %8 = getelementptr inbounds [2 x ptr], ptr %7, i64 0, i64 0
  %9 = load ptr, ptr %8, align 8
  %10 = icmp ne ptr %9, null
  br i1 %10, label %11, label %97

11:                                               ; preds = %2
  %12 = getelementptr inbounds %class.State, ptr %6, i32 0, i32 4
  %13 = getelementptr inbounds [2 x ptr], ptr %12, i64 0, i64 0
  %14 = load ptr, ptr %13, align 8
  %15 = getelementptr inbounds %class.State, ptr %14, i32 0, i32 1
  %16 = getelementptr inbounds [315 x i16], ptr %15, i64 0, i64 127
  %17 = load i16, ptr %16, align 2
  %18 = zext i16 %17 to i32
  %19 = and i32 %18, 1
  %20 = icmp ne i32 %19, 0
  br i1 %20, label %21, label %97

21:                                               ; preds = %11
  %22 = getelementptr inbounds %class.State, ptr %6, i32 0, i32 4
  %23 = getelementptr inbounds [2 x ptr], ptr %22, i64 0, i64 1
  %24 = load ptr, ptr %23, align 8
  %25 = icmp ne ptr %24, null
  br i1 %25, label %26, label %97

26:                                               ; preds = %21
  %27 = getelementptr inbounds %class.State, ptr %6, i32 0, i32 4
  %28 = getelementptr inbounds [2 x ptr], ptr %27, i64 0, i64 1
  %29 = load ptr, ptr %28, align 8
  %30 = getelementptr inbounds %class.State, ptr %29, i32 0, i32 1
  %31 = getelementptr inbounds [315 x i16], ptr %30, i64 0, i64 191
  %32 = load i16, ptr %31, align 2
  %33 = zext i16 %32 to i32
  %34 = and i32 %33, 1
  %35 = icmp ne i32 %34, 0
  br i1 %35, label %36, label %97

36:                                               ; preds = %26
  %37 = getelementptr inbounds %class.State, ptr %6, i32 0, i32 4
  %38 = getelementptr inbounds [2 x ptr], ptr %37, i64 0, i64 0
  %39 = load ptr, ptr %38, align 8
  %40 = getelementptr inbounds %class.State, ptr %39, i32 0, i32 0
  %41 = getelementptr inbounds [315 x i32], ptr %40, i64 0, i64 127
  %42 = load i32, ptr %41, align 4
  %43 = getelementptr inbounds %class.State, ptr %6, i32 0, i32 4
  %44 = getelementptr inbounds [2 x ptr], ptr %43, i64 0, i64 1
  %45 = load ptr, ptr %44, align 8
  %46 = getelementptr inbounds %class.State, ptr %45, i32 0, i32 0
  %47 = getelementptr inbounds [315 x i32], ptr %46, i64 0, i64 191
  %48 = load i32, ptr %47, align 4
  %49 = add i32 %42, %48
  %50 = add i32 %49, 100
  store i32 %50, ptr %5, align 4
  %51 = load i32, ptr %5, align 4
  %52 = getelementptr inbounds %class.State, ptr %6, i32 0, i32 0
  %53 = getelementptr inbounds [315 x i32], ptr %52, i64 0, i64 49
  store i32 %51, ptr %53, align 4
  %54 = getelementptr inbounds %class.State, ptr %6, i32 0, i32 1
  %55 = getelementptr inbounds [315 x i16], ptr %54, i64 0, i64 49
  store i16 3317, ptr %55, align 2
  %56 = load i32, ptr %5, align 4
  %57 = add i32 %56, 100
  %58 = getelementptr inbounds %class.State, ptr %6, i32 0, i32 0
  %59 = getelementptr inbounds [315 x i32], ptr %58, i64 0, i64 105
  store i32 %57, ptr %59, align 4
  %60 = getelementptr inbounds %class.State, ptr %6, i32 0, i32 1
  %61 = getelementptr inbounds [315 x i16], ptr %60, i64 0, i64 105
  store i16 631, ptr %61, align 2
  %62 = load i32, ptr %5, align 4
  %63 = getelementptr inbounds %class.State, ptr %6, i32 0, i32 0
  %64 = getelementptr inbounds [315 x i32], ptr %63, i64 0, i64 50
  store i32 %62, ptr %64, align 8
  %65 = getelementptr inbounds %class.State, ptr %6, i32 0, i32 1
  %66 = getelementptr inbounds [315 x i16], ptr %65, i64 0, i64 50
  store i16 3317, ptr %66, align 4
  %67 = load i32, ptr %5, align 4
  %68 = getelementptr inbounds %class.State, ptr %6, i32 0, i32 0
  %69 = getelementptr inbounds [315 x i32], ptr %68, i64 0, i64 56
  store i32 %67, ptr %69, align 8
  %70 = getelementptr inbounds %class.State, ptr %6, i32 0, i32 1
  %71 = getelementptr inbounds [315 x i16], ptr %70, i64 0, i64 56
  store i16 3317, ptr %71, align 4
  %72 = load i32, ptr %5, align 4
  %73 = getelementptr inbounds %class.State, ptr %6, i32 0, i32 0
  %74 = getelementptr inbounds [315 x i32], ptr %73, i64 0, i64 51
  store i32 %72, ptr %74, align 4
  %75 = getelementptr inbounds %class.State, ptr %6, i32 0, i32 1
  %76 = getelementptr inbounds [315 x i16], ptr %75, i64 0, i64 51
  store i16 3317, ptr %76, align 2
  %77 = load i32, ptr %5, align 4
  %78 = getelementptr inbounds %class.State, ptr %6, i32 0, i32 0
  %79 = getelementptr inbounds [315 x i32], ptr %78, i64 0, i64 55
  store i32 %77, ptr %79, align 4
  %80 = getelementptr inbounds %class.State, ptr %6, i32 0, i32 1
  %81 = getelementptr inbounds [315 x i16], ptr %80, i64 0, i64 55
  store i16 3317, ptr %81, align 2
  %82 = load i32, ptr %5, align 4
  %83 = getelementptr inbounds %class.State, ptr %6, i32 0, i32 0
  %84 = getelementptr inbounds [315 x i32], ptr %83, i64 0, i64 52
  store i32 %82, ptr %84, align 8
  %85 = getelementptr inbounds %class.State, ptr %6, i32 0, i32 1
  %86 = getelementptr inbounds [315 x i16], ptr %85, i64 0, i64 52
  store i16 3317, ptr %86, align 4
  %87 = load i32, ptr %5, align 4
  %88 = getelementptr inbounds %class.State, ptr %6, i32 0, i32 0
  %89 = getelementptr inbounds [315 x i32], ptr %88, i64 0, i64 53
  store i32 %87, ptr %89, align 4
  %90 = getelementptr inbounds %class.State, ptr %6, i32 0, i32 1
  %91 = getelementptr inbounds [315 x i16], ptr %90, i64 0, i64 53
  store i16 3317, ptr %91, align 2
  %92 = load i32, ptr %5, align 4
  %93 = getelementptr inbounds %class.State, ptr %6, i32 0, i32 0
  %94 = getelementptr inbounds [315 x i32], ptr %93, i64 0, i64 54
  store i32 %92, ptr %94, align 8
  %95 = getelementptr inbounds %class.State, ptr %6, i32 0, i32 1
  %96 = getelementptr inbounds [315 x i16], ptr %95, i64 0, i64 54
  store i16 3317, ptr %96, align 4
  br label %97

97:                                               ; preds = %36, %26, %21, %11, %2
  ret void
}