; Function Attrs: mustprogress nofree norecurse nosync nounwind willreturn memory(read, argmem: readwrite, inaccessiblemem: none) uwtable
define hidden void @_ZN5State33_sub_Op_ShenandoahCompareAndSwapPEPK4Node(ptr nocapture noundef nonnull align 8 dereferenceable(1920) %0, ptr nocapture readnone %1) local_unnamed_addr #1 align 2 {
  %3 = getelementptr inbounds i8, ptr %0, i64 1904
  %4 = load ptr, ptr %3, align 8
  %.not = icmp eq ptr %4, null
  br i1 %.not, label %31, label %5

5:                                                ; preds = %2
  %6 = getelementptr inbounds i8, ptr %4, i64 1514
  %7 = load i16, ptr %6, align 2
  %8 = and i16 %7, 1
  %.not10 = icmp eq i16 %8, 0
  br i1 %.not10, label %31, label %9

9:                                                ; preds = %5
  %10 = getelementptr inbounds i8, ptr %0, i64 1912
  %11 = load ptr, ptr %10, align 8
  %.not11 = icmp eq ptr %11, null
  br i1 %.not11, label %31, label %12

12:                                               ; preds = %9
  %13 = getelementptr inbounds i8, ptr %11, i64 1642
  %14 = load i16, ptr %13, align 2
  %15 = and i16 %14, 1
  %.not12 = icmp eq i16 %15, 0
  br i1 %.not12, label %31, label %16

16:                                               ; preds = %12
  %17 = getelementptr inbounds i8, ptr %4, i64 508
  %18 = load i32, ptr %17, align 4
  %19 = getelementptr inbounds i8, ptr %11, i64 764
  %20 = load i32, ptr %19, align 4
  %21 = add i32 %20, %18
  %22 = add i32 %21, 100
  %23 = getelementptr inbounds i8, ptr %0, i64 196
  %24 = getelementptr inbounds i8, ptr %0, i64 1358
  %25 = add i32 %21, 200
  %26 = getelementptr inbounds i8, ptr %0, i64 420
  store i32 %25, ptr %26, align 4
  %27 = getelementptr inbounds i8, ptr %0, i64 1470
  store i16 631, ptr %27, align 2
  %28 = insertelement <4 x i32> poison, i32 %22, i64 0
  %29 = shufflevector <4 x i32> %28, <4 x i32> poison, <4 x i32> zeroinitializer
  store <4 x i32> %29, ptr %23, align 4
  %30 = getelementptr inbounds i8, ptr %0, i64 212
  store <4 x i32> %29, ptr %30, align 4
  store <8 x i16> <i16 3317, i16 3317, i16 3317, i16 3317, i16 3317, i16 3317, i16 3317, i16 3317>, ptr %24, align 2
  br label %31

31:                                               ; preds = %16, %12, %9, %5, %2
  ret void
}